target datalayout = "e-m:e-p270:32:32-p271:32:32-p272:64:64-i64:64-i128:128-f80:128-n8:16:32:64-S128"
target triple = "x86_64-unknown-linux-gnu"

%"class.cineon::InStream" = type { ptr, ptr }

; Function Attrs: mustprogress uwtable
define hidden noundef i64 @_ZN6cineon8InStream4ReadEPvm(ptr noundef nonnull align 8 dereferenceable(16) %this, ptr noundef %buf, i64 noundef %size) unnamed_addr #6 align 2 {
entry:
  %retval = alloca i64, align 8
  %this.addr = alloca ptr, align 8
  %buf.addr = alloca ptr, align 8
  %size.addr = alloca i64, align 8
  store ptr %this, ptr %this.addr, align 8
  store ptr %buf, ptr %buf.addr, align 8
  store i64 %size, ptr %size.addr, align 8
  %this1 = load ptr, ptr %this.addr, align 8
  %fp = getelementptr inbounds %"class.cineon::InStream", ptr %this1, i32 0, i32 1
  %0 = load ptr, ptr %fp, align 8
  %cmp = icmp eq ptr %0, null
  br i1 %cmp, label %if.then, label %if.end

if.then:                                          ; preds = %entry
  store i64 0, ptr %retval, align 8
  br label %return

if.end:                                           ; preds = %entry
  %1 = load ptr, ptr %buf.addr, align 8
  %2 = load i64, ptr %size.addr, align 8
  %fp2 = getelementptr inbounds %"class.cineon::InStream", ptr %this1, i32 0, i32 1
  %3 = load ptr, ptr %fp2, align 8
  %call = call i64 @fread(ptr noundef %1, i64 noundef 1, i64 noundef %2, ptr noundef %3)
  store i64 %call, ptr %retval, align 8
  br label %return

return:                                           ; preds = %if.end, %if.then
  %4 = load i64, ptr %retval, align 8
  ret i64 %4
}