; Function Attrs: mustprogress nofree nounwind uwtable
define hidden noundef i64 @_ZN6cineon8InStream4ReadEPvm(ptr nocapture noundef nonnull readonly align 8 dereferenceable(16) %this, ptr nocapture noundef %buf, i64 noundef %size) unnamed_addr #8 align 2 {
entry:
  %fp = getelementptr inbounds i8, ptr %this, i64 8
  %0 = load ptr, ptr %fp, align 8
  %cmp = icmp eq ptr %0, null
  br i1 %cmp, label %return, label %if.end

if.end:                                           ; preds = %entry
  %call = tail call i64 @fread(ptr noundef %buf, i64 noundef 1, i64 noundef %size, ptr noundef nonnull %0)
  br label %return

return:                                           ; preds = %entry, %if.end
  %retval.0 = phi i64 [ %call, %if.end ], [ 0, %entry ]
  ret i64 %retval.0
}